target datalayout = "e-m:e-p270:32:32-p271:32:32-p272:64:64-i64:64-i128:128-f80:128-n8:16:32:64-S128"
target triple = "x86_64-pc-linux-gnu"

%struct.ma_biquad = type { i32, i32, %union.ma_biquad_coefficient, %union.ma_biquad_coefficient, %union.ma_biquad_coefficient, %union.ma_biquad_coefficient, %union.ma_biquad_coefficient, ptr, ptr, ptr, i32 }
%union.ma_biquad_coefficient = type { float }
%struct.ma_peak2 = type { %struct.ma_biquad }

; Function Attrs: nounwind uwtable
define i32 @ma_peak2_process_pcm_frames(ptr noundef %0, ptr noundef %1, ptr noundef %2, i64 noundef %3) #0 {
  %5 = alloca i32, align 4
  %6 = alloca ptr, align 8
  %7 = alloca ptr, align 8
  %8 = alloca ptr, align 8
  %9 = alloca i64, align 8
  store ptr %0, ptr %6, align 8, !tbaa !25
  store ptr %1, ptr %7, align 8, !tbaa !25
  store ptr %2, ptr %8, align 8, !tbaa !25
  store i64 %3, ptr %9, align 8, !tbaa !47
  %10 = load ptr, ptr %6, align 8, !tbaa !25
  %11 = icmp eq ptr %10, null
  br i1 %11, label %12, label %13

12:                                               ; preds = %4
  store i32 -2, ptr %5, align 4
  br label %20

13:                                               ; preds = %4
  %14 = load ptr, ptr %6, align 8, !tbaa !25
  %15 = getelementptr inbounds nuw %struct.ma_peak2, ptr %14, i32 0, i32 0
  %16 = load ptr, ptr %7, align 8, !tbaa !25
  %17 = load ptr, ptr %8, align 8, !tbaa !25
  %18 = load i64, ptr %9, align 8, !tbaa !47
  %19 = call i32 @ma_biquad_process_pcm_frames(ptr noundef %15, ptr noundef %16, ptr noundef %17, i64 noundef %18)
  store i32 %19, ptr %5, align 4
  br label %20

20:                                               ; preds = %13, %12
  %21 = load i32, ptr %5, align 4
  ret i32 %21
}